; Function Attrs: mustprogress uwtable
define noundef signext i8 @_ZN6icu_7517QuantityFormatter11addIfAbsentEPKcRKNS_13UnicodeStringER10UErrorCode(ptr nocapture noundef nonnull align 8 dereferenceable(64) %this, ptr noundef %variant, ptr noundef nonnull align 8 dereferenceable(64) %rawPattern, ptr noundef nonnull align 4 dereferenceable(4) %status) local_unnamed_addr #1 align 2 personality ptr @__gxx_personality_v0 {
entry:
  %call = tail call noundef i32 @_ZN6icu_7514StandardPlural15indexFromStringEPKcR10UErrorCode(ptr noundef %variant, ptr noundef nonnull align 4 dereferenceable(4) %status)
  %0 = load i32, ptr %status, align 4
  %cmp.i = icmp slt i32 %0, 1
  br i1 %cmp.i, label %if.end, label %return

if.end:                                           ; preds = %entry
  %idxprom = sext i32 %call to i64
  %arrayidx = getelementptr inbounds [8 x ptr], ptr %this, i64 0, i64 %idxprom
  %1 = load ptr, ptr %arrayidx, align 8
  %cmp.not = icmp eq ptr %1, null
  br i1 %cmp.not, label %if.end4, label %return

if.end4:                                          ; preds = %if.end
  %call5 = tail call noundef ptr @_ZN6icu_757UMemorynwEm(i64 noundef 72) #13
  %new.isnull = icmp eq ptr %call5, null
  br i1 %new.isnull, label %if.then7, label %new.notnull

new.notnull:                                      ; preds = %if.end4
  %compiledPattern.i = getelementptr inbounds i8, ptr %call5, i64 8
  store ptr getelementptr inbounds ({ [13 x ptr] }, ptr @_ZTVN6icu_7513UnicodeStringE, i64 0, i32 0, i64 2), ptr %compiledPattern.i, align 8
  %fUnion2.i.i = getelementptr inbounds i8, ptr %call5, i64 16
  store i16 2, ptr %fUnion2.i.i, align 8
  %call.i = invoke noundef signext i8 @_ZN6icu_7515SimpleFormatter27applyPatternMinMaxArgumentsERKNS_13UnicodeStringEiiR10UErrorCode(ptr noundef nonnull align 8 dereferenceable(72) %call5, ptr noundef nonnull align 8 dereferenceable(64) %rawPattern, i32 noundef 0, i32 noundef 1, ptr noundef nonnull align 4 dereferenceable(4) %status)
          to label %if.end8 unwind label %lpad.i

lpad.i:                                           ; preds = %new.notnull
  %2 = landingpad { ptr, i32 }
          cleanup
  tail call void @_ZN6icu_7513UnicodeStringD1Ev(ptr noundef nonnull align 8 dereferenceable(64) %compiledPattern.i) #13
  tail call void @_ZN6icu_757UMemorydlEPv(ptr noundef nonnull %call5) #13
  resume { ptr, i32 } %2

if.then7:                                         ; preds = %if.end4
  store i32 7, ptr %status, align 4
  br label %return

if.end8:                                          ; preds = %new.notnull
  %3 = load i32, ptr %status, align 4
  %cmp.i8 = icmp slt i32 %3, 1
  br i1 %cmp.i8, label %if.end12, label %delete.notnull

delete.notnull:                                   ; preds = %if.end8
  tail call void @_ZN6icu_7515SimpleFormatterD1Ev(ptr noundef nonnull align 8 dereferenceable(72) %call5) #13
  tail call void @_ZN6icu_757UMemorydlEPv(ptr noundef nonnull %call5) #13
  br label %return

if.end12:                                         ; preds = %if.end8
  store ptr %call5, ptr %arrayidx, align 8
  br label %return

return:                                           ; preds = %if.end, %entry, %if.end12, %delete.notnull, %if.then7
  %retval.0 = phi i8 [ 0, %if.then7 ], [ 0, %delete.notnull ], [ 1, %if.end12 ], [ 0, %entry ], [ 1, %if.end ]
  ret i8 %retval.0
}